target datalayout = "e-m:e-p270:32:32-p271:32:32-p272:64:64-i64:64-i128:128-f80:128-n8:16:32:64-S128"
target triple = "x86_64-pc-linux-gnu"

%"class.Ipopt::TripletToCSRConverter" = type { %"class.Ipopt::ReferencedObject.base", i32, i32, ptr, ptr, i32, i32, i32, i32, i8, ptr, ptr, ptr }
%"class.Ipopt::ReferencedObject.base" = type <{ ptr, i32 }>
%"class.Ipopt::ReferencedObject" = type <{ ptr, i32, [4 x i8] }>

@_ZTVN5Ipopt21TripletToCSRConverterE = unnamed_addr constant { [4 x ptr] } { [4 x ptr] [ptr null, ptr @_ZTIN5Ipopt21TripletToCSRConverterE, ptr @_ZN5Ipopt21TripletToCSRConverterD1Ev, ptr @_ZN5Ipopt21TripletToCSRConverterD0Ev] }, align 8
@_ZTVN5Ipopt16ReferencedObjectE = linkonce_odr unnamed_addr constant { [4 x ptr] } { [4 x ptr] [ptr null, ptr @_ZTIN5Ipopt16ReferencedObjectE, ptr @_ZN5Ipopt16ReferencedObjectD2Ev, ptr @_ZN5Ipopt16ReferencedObjectD0Ev] }, comdat, align 8

; Function Attrs: mustprogress nounwind uwtable
define linkonce_odr void @_ZN5Ipopt16ReferencedObjectC2Ev(ptr noundef nonnull align 8 dereferenceable(12) %0) unnamed_addr #1 comdat align 2 {
  %2 = alloca ptr, align 8
  store ptr %0, ptr %2, align 8, !tbaa !29
  %3 = load ptr, ptr %2, align 8
  store ptr getelementptr inbounds inrange(-16, 16) ({ [4 x ptr] }, ptr @_ZTVN5Ipopt16ReferencedObjectE, i32 0, i32 0, i32 2), ptr %3, align 8, !tbaa !12
  %4 = getelementptr inbounds nuw %"class.Ipopt::ReferencedObject", ptr %3, i32 0, i32 1
  store i32 0, ptr %4, align 8, !tbaa !31
  ret void
}

; Function Attrs: mustprogress uwtable
define void @_ZN5Ipopt21TripletToCSRConverterC2EiNS0_8ETriFullE(ptr noundef nonnull align 8 dereferenceable(88) %0, i32 noundef %1, i32 noundef %2) unnamed_addr #0 align 2 {
  %4 = alloca ptr, align 8
  %5 = alloca i32, align 4
  %6 = alloca i32, align 4
  store ptr %0, ptr %4, align 8, !tbaa !3
  store i32 %1, ptr %5, align 4, !tbaa !8
  store i32 %2, ptr %6, align 4, !tbaa !10
  %7 = load ptr, ptr %4, align 8
  call void @_ZN5Ipopt16ReferencedObjectC2Ev(ptr noundef nonnull align 8 dereferenceable(12) %7)
  store ptr getelementptr inbounds inrange(-16, 16) ({ [4 x ptr] }, ptr @_ZTVN5Ipopt21TripletToCSRConverterE, i32 0, i32 0, i32 2), ptr %7, align 8, !tbaa !12
  %8 = getelementptr inbounds nuw %"class.Ipopt::TripletToCSRConverter", ptr %7, i32 0, i32 1
  %9 = load i32, ptr %5, align 4, !tbaa !8
  store i32 %9, ptr %8, align 4, !tbaa !14
  %10 = getelementptr inbounds nuw %"class.Ipopt::TripletToCSRConverter", ptr %7, i32 0, i32 2
  %11 = load i32, ptr %6, align 4, !tbaa !10
  store i32 %11, ptr %10, align 8, !tbaa !19
  %12 = getelementptr inbounds nuw %"class.Ipopt::TripletToCSRConverter", ptr %7, i32 0, i32 3
  store ptr null, ptr %12, align 8, !tbaa !20
  %13 = getelementptr inbounds nuw %"class.Ipopt::TripletToCSRConverter", ptr %7, i32 0, i32 4
  store ptr null, ptr %13, align 8, !tbaa !21
  %14 = getelementptr inbounds nuw %"class.Ipopt::TripletToCSRConverter", ptr %7, i32 0, i32 5
  store i32 0, ptr %14, align 8, !tbaa !22
  %15 = getelementptr inbounds nuw %"class.Ipopt::TripletToCSRConverter", ptr %7, i32 0, i32 6
  store i32 0, ptr %15, align 4, !tbaa !23
  %16 = getelementptr inbounds nuw %"class.Ipopt::TripletToCSRConverter", ptr %7, i32 0, i32 7
  store i32 0, ptr %16, align 8, !tbaa !24
  %17 = getelementptr inbounds nuw %"class.Ipopt::TripletToCSRConverter", ptr %7, i32 0, i32 9
  store i8 0, ptr %17, align 8, !tbaa !25
  %18 = getelementptr inbounds nuw %"class.Ipopt::TripletToCSRConverter", ptr %7, i32 0, i32 10
  store ptr null, ptr %18, align 8, !tbaa !26
  %19 = getelementptr inbounds nuw %"class.Ipopt::TripletToCSRConverter", ptr %7, i32 0, i32 11
  store ptr null, ptr %19, align 8, !tbaa !27
  %20 = getelementptr inbounds nuw %"class.Ipopt::TripletToCSRConverter", ptr %7, i32 0, i32 12
  store ptr null, ptr %20, align 8, !tbaa !28
  ret void
}